target datalayout = "e-m:e-p270:32:32-p271:32:32-p272:64:64-i64:64-i128:128-f80:128-n8:16:32:64-S128"
target triple = "x86_64-pc-linux-gnu"

%struct.nstime_t = type { i64, i32 }
%struct.wtap_rec = type { i32, i32, i32, %struct.nstime_t, i32, %struct.nstime_t, i8, %union.anon, ptr, i8, %struct.Buffer, %struct.Buffer }
%union.anon = type { %struct.wtap_packet_header }
%struct.wtap_packet_header = type { i32, i32, i32, i32, %union.wtap_pseudo_header }
%union.wtap_pseudo_header = type { %struct.erf_mc_phdr }
%struct.erf_mc_phdr = type { %struct.erf_phdr, [16 x %struct.erf_ehdr], %union.anon.1 }
%struct.erf_phdr = type { i64, i8, i8, i16, i16, i16 }
%struct.erf_ehdr = type { i64 }
%union.anon.1 = type { i32 }
%struct.Buffer = type { ptr, i64, i64, i64 }

@eri_enb_log_get_packet.line = internal global [131072 x i8] zeroinitializer, align 16

; Function Attrs: null_pointer_is_valid sspstrong uwtable
define internal zeroext i1 @eri_enb_log_get_packet(ptr noundef %0, ptr noundef %1, ptr noundef %2, ptr noundef %3) #0 {
  %5 = alloca i1, align 1
  %6 = alloca ptr, align 8
  %7 = alloca ptr, align 8
  %8 = alloca ptr, align 8
  %9 = alloca ptr, align 8
  %10 = alloca i64, align 8
  %11 = alloca %struct.nstime_t, align 8
  %12 = alloca i32, align 4
  %13 = alloca i32, align 4
  store ptr %0, ptr %6, align 8
  store ptr %1, ptr %7, align 8
  store ptr %2, ptr %8, align 8
  store ptr %3, ptr %9, align 8
  call void @llvm.lifetime.start.p0(i64 8, ptr %10) #3
  %14 = load ptr, ptr %6, align 8
  %15 = call i64 @file_tell(ptr noundef %14)
  store i64 %15, ptr %10, align 8
  br label %16

16:                                               ; preds = %4
  %17 = load ptr, ptr %6, align 8
  %18 = call ptr @file_gets(ptr noundef @eri_enb_log_get_packet.line, i32 noundef 131072, ptr noundef %17)
  %19 = icmp ne ptr %18, null
  br i1 %19, label %20, label %110

20:                                               ; preds = %16
  call void @llvm.lifetime.start.p0(i64 16, ptr %11) #3
  call void @llvm.lifetime.start.p0(i64 4, ptr %12) #3
  %21 = load ptr, ptr %6, align 8
  %22 = call i64 @file_tell(ptr noundef %21)
  %23 = load i64, ptr %10, align 8
  %24 = sub i64 %22, %23
  %25 = trunc i64 %24 to i32
  store i32 %25, ptr %12, align 4
  %26 = load i32, ptr %12, align 4
  %27 = icmp sgt i32 %26, 0
  br i1 %27, label %28, label %43

28:                                               ; preds = %20
  %29 = load i32, ptr %12, align 4
  %30 = sub i32 %29, 1
  %31 = sext i32 %30 to i64
  %32 = getelementptr [131072 x i8], ptr @eri_enb_log_get_packet.line, i64 0, i64 %31
  %33 = load i8, ptr %32, align 1
  %34 = sext i8 %33 to i32
  %35 = icmp eq i32 %34, 10
  br i1 %35, label %36, label %43

36:                                               ; preds = %28
  %37 = load i32, ptr %12, align 4
  %38 = sub i32 %37, 1
  %39 = sext i32 %38 to i64
  %40 = getelementptr [131072 x i8], ptr @eri_enb_log_get_packet.line, i64 0, i64 %39
  store i8 0, ptr %40, align 1
  %41 = load i32, ptr %12, align 4
  %42 = sub i32 %41, 1
  store i32 %42, ptr %12, align 4
  br label %43

43:                                               ; preds = %36, %28, %20
  %44 = load i32, ptr %12, align 4
  %45 = icmp sgt i32 %44, 0
  br i1 %45, label %46, label %61

46:                                               ; preds = %43
  %47 = load i32, ptr %12, align 4
  %48 = sub i32 %47, 1
  %49 = sext i32 %48 to i64
  %50 = getelementptr [131072 x i8], ptr @eri_enb_log_get_packet.line, i64 0, i64 %49
  %51 = load i8, ptr %50, align 1
  %52 = sext i8 %51 to i32
  %53 = icmp eq i32 %52, 13
  br i1 %53, label %54, label %61

54:                                               ; preds = %46
  %55 = load i32, ptr %12, align 4
  %56 = sub i32 %55, 1
  %57 = sext i32 %56 to i64
  %58 = getelementptr [131072 x i8], ptr @eri_enb_log_get_packet.line, i64 0, i64 %57
  store i8 0, ptr %58, align 1
  %59 = load i32, ptr %12, align 4
  %60 = sub i32 %59, 1
  store i32 %60, ptr %12, align 4
  br label %61

61:                                               ; preds = %54, %46, %43
  %62 = call ptr @iso8601_to_nstime(ptr noundef %11, ptr noundef getelementptr (i8, ptr @eri_enb_log_get_packet.line, i64 1), i32 noundef 0)
  %63 = icmp ne ptr null, %62
  br i1 %63, label %64, label %79

64:                                               ; preds = %61
  %65 = getelementptr inbounds nuw %struct.nstime_t, ptr %11, i32 0, i32 0
  %66 = load i64, ptr %65, align 8
  %67 = load ptr, ptr %7, align 8
  %68 = getelementptr inbounds nuw %struct.wtap_rec, ptr %67, i32 0, i32 3
  %69 = getelementptr inbounds nuw %struct.nstime_t, ptr %68, i32 0, i32 0
  store i64 %66, ptr %69, align 8
  %70 = getelementptr inbounds nuw %struct.nstime_t, ptr %11, i32 0, i32 1
  %71 = load i32, ptr %70, align 8
  %72 = load ptr, ptr %7, align 8
  %73 = getelementptr inbounds nuw %struct.wtap_rec, ptr %72, i32 0, i32 3
  %74 = getelementptr inbounds nuw %struct.nstime_t, ptr %73, i32 0, i32 1
  store i32 %71, ptr %74, align 8
  %75 = load ptr, ptr %7, align 8
  %76 = getelementptr inbounds nuw %struct.wtap_rec, ptr %75, i32 0, i32 1
  %77 = load i32, ptr %76, align 4
  %78 = or i32 %77, 1
  store i32 %78, ptr %76, align 4
  br label %88

79:                                               ; preds = %61
  %80 = load ptr, ptr %7, align 8
  %81 = getelementptr inbounds nuw %struct.wtap_rec, ptr %80, i32 0, i32 3
  %82 = getelementptr inbounds nuw %struct.nstime_t, ptr %81, i32 0, i32 0
  store i64 0, ptr %82, align 8
  %83 = load ptr, ptr %7, align 8
  %84 = getelementptr inbounds nuw %struct.wtap_rec, ptr %83, i32 0, i32 3
  %85 = getelementptr inbounds nuw %struct.nstime_t, ptr %84, i32 0, i32 1
  store i32 0, ptr %85, align 8
  %86 = load ptr, ptr %7, align 8
  %87 = getelementptr inbounds nuw %struct.wtap_rec, ptr %86, i32 0, i32 1
  store i32 0, ptr %87, align 4
  br label %88

88:                                               ; preds = %79, %64
  %89 = load ptr, ptr %7, align 8
  %90 = getelementptr inbounds nuw %struct.wtap_rec, ptr %89, i32 0, i32 0
  store i32 0, ptr %90, align 8
  %91 = call ptr @wtap_block_create(i32 noundef 5)
  %92 = load ptr, ptr %7, align 8
  %93 = getelementptr inbounds nuw %struct.wtap_rec, ptr %92, i32 0, i32 8
  store ptr %91, ptr %93, align 8
  %94 = load i32, ptr %12, align 4
  %95 = load ptr, ptr %7, align 8
  %96 = getelementptr inbounds nuw %struct.wtap_rec, ptr %95, i32 0, i32 7
  %97 = getelementptr inbounds nuw %struct.wtap_packet_header, ptr %96, i32 0, i32 0
  store i32 %94, ptr %97, align 8
  %98 = load i32, ptr %12, align 4
  %99 = load ptr, ptr %7, align 8
  %100 = getelementptr inbounds nuw %struct.wtap_rec, ptr %99, i32 0, i32 7
  %101 = getelementptr inbounds nuw %struct.wtap_packet_header, ptr %100, i32 0, i32 1
  store i32 %98, ptr %101, align 4
  %102 = load ptr, ptr %8, align 8
  store i32 0, ptr %102, align 4
  %103 = load ptr, ptr %7, align 8
  %104 = getelementptr inbounds nuw %struct.wtap_rec, ptr %103, i32 0, i32 11
  %105 = load ptr, ptr %7, align 8
  %106 = getelementptr inbounds nuw %struct.wtap_rec, ptr %105, i32 0, i32 7
  %107 = getelementptr inbounds nuw %struct.wtap_packet_header, ptr %106, i32 0, i32 0
  %108 = load i32, ptr %107, align 8
  %109 = zext i32 %108 to i64
  call void @ws_buffer_append(ptr noundef %104, ptr noundef @eri_enb_log_get_packet.line, i64 noundef %109)
  store i1 true, ptr %5, align 1
  store i32 1, ptr %13, align 4
  call void @llvm.lifetime.end.p0(i64 4, ptr %12) #3
  call void @llvm.lifetime.end.p0(i64 16, ptr %11) #3
  br label %111

110:                                              ; preds = %16
  store i1 false, ptr %5, align 1
  store i32 1, ptr %13, align 4
  br label %111

111:                                              ; preds = %110, %88
  call void @llvm.lifetime.end.p0(i64 8, ptr %10) #3
  %112 = load i1, ptr %5, align 1
  ret i1 %112
}