; Function Attrs: null_pointer_is_valid sspstrong uwtable
define internal fastcc noundef zeroext i1 @eri_enb_log_get_packet(ptr noundef %0, ptr noundef %1, ptr noundef writeonly captures(none) %2) unnamed_addr #0 {
  %4 = alloca %struct.nstime_t, align 8
  %5 = tail call i64 @file_tell(ptr noundef %0)
  %6 = tail call ptr @file_gets(ptr noundef nonnull @eri_enb_log_get_packet.line, i32 noundef 131072, ptr noundef %0)
  %.not = icmp ne ptr %6, null
  br i1 %.not, label %7, label %45

7:                                                ; preds = %3
  call void @llvm.lifetime.start.p0(i64 16, ptr nonnull %4) #3
  %8 = tail call i64 @file_tell(ptr noundef %0)
  %9 = sub i64 %8, %5
  %10 = trunc i64 %9 to i32
  %11 = icmp sgt i32 %10, 0
  br i1 %11, label %12, label %.thread3

12:                                               ; preds = %7
  %13 = add nsw i32 %10, -1
  %14 = zext nneg i32 %13 to i64
  %15 = getelementptr [131072 x i8], ptr @eri_enb_log_get_packet.line, i64 0, i64 %14
  %16 = load i8, ptr %15, align 1
  %17 = icmp eq i8 %16, 10
  br i1 %17, label %18, label %.thread

18:                                               ; preds = %12
  store i8 0, ptr %15, align 1
  %.not5 = icmp eq i32 %13, 0
  br i1 %.not5, label %.thread3, label %..thread_crit_edge

..thread_crit_edge:                               ; preds = %18
  %.pre = add nsw i32 %10, -2
  %.pre6 = zext nneg i32 %.pre to i64
  br label %.thread

.thread:                                          ; preds = %..thread_crit_edge, %12
  %.pre-phi7 = phi i64 [ %.pre6, %..thread_crit_edge ], [ %14, %12 ]
  %.pre-phi = phi i32 [ %.pre, %..thread_crit_edge ], [ %13, %12 ]
  %.02 = phi i32 [ %13, %..thread_crit_edge ], [ %10, %12 ]
  %19 = getelementptr [131072 x i8], ptr @eri_enb_log_get_packet.line, i64 0, i64 %.pre-phi7
  %20 = load i8, ptr %19, align 1
  %21 = icmp eq i8 %20, 13
  br i1 %21, label %22, label %.thread3

22:                                               ; preds = %.thread
  store i8 0, ptr %19, align 1
  br label %.thread3

.thread3:                                         ; preds = %7, %22, %.thread, %18
  %.1 = phi i32 [ %.pre-phi, %22 ], [ %.02, %.thread ], [ 0, %18 ], [ %10, %7 ]
  %23 = call ptr @iso8601_to_nstime(ptr noundef nonnull %4, ptr noundef nonnull getelementptr inbounds nuw (i8, ptr @eri_enb_log_get_packet.line, i64 1), i32 noundef 0)
  %.not30 = icmp eq ptr %23, null
  br i1 %.not30, label %33, label %24

24:                                               ; preds = %.thread3
  %25 = load i64, ptr %4, align 8
  %26 = getelementptr inbounds nuw i8, ptr %1, i64 16
  store i64 %25, ptr %26, align 8
  %27 = getelementptr inbounds nuw i8, ptr %4, i64 8
  %28 = load i32, ptr %27, align 8
  %29 = getelementptr inbounds nuw i8, ptr %1, i64 24
  store i32 %28, ptr %29, align 8
  %30 = getelementptr inbounds nuw i8, ptr %1, i64 4
  %31 = load i32, ptr %30, align 4
  %32 = or i32 %31, 1
  store i32 %32, ptr %30, align 4
  br label %37

33:                                               ; preds = %.thread3
  %34 = getelementptr inbounds nuw i8, ptr %1, i64 16
  store i64 0, ptr %34, align 8
  %35 = getelementptr inbounds nuw i8, ptr %1, i64 24
  store i32 0, ptr %35, align 8
  %36 = getelementptr inbounds nuw i8, ptr %1, i64 4
  store i32 0, ptr %36, align 4
  br label %37

37:                                               ; preds = %33, %24
  store i32 0, ptr %1, align 8
  %38 = call ptr @wtap_block_create(i32 noundef 5)
  %39 = getelementptr inbounds nuw i8, ptr %1, i64 232
  store ptr %38, ptr %39, align 8
  %40 = getelementptr inbounds nuw i8, ptr %1, i64 64
  store i32 %.1, ptr %40, align 8
  %41 = getelementptr inbounds nuw i8, ptr %1, i64 68
  store i32 %.1, ptr %41, align 4
  store i32 0, ptr %2, align 4
  %42 = getelementptr inbounds nuw i8, ptr %1, i64 280
  %43 = load i32, ptr %40, align 8
  %44 = zext i32 %43 to i64
  call void @ws_buffer_append(ptr noundef nonnull %42, ptr noundef nonnull @eri_enb_log_get_packet.line, i64 noundef %44)
  call void @llvm.lifetime.end.p0(i64 16, ptr nonnull %4) #3
  br label %45

45:                                               ; preds = %3, %37
  ret i1 %.not
}